(dp1
S'hand_motor_joint'
p2
F-0.83909
sS'head_pan_joint'
p3
F0.65000317106906991
sS'wrist_roll_joint'
p4
F-1.5806172725862417
sS'arm_lift_joint'
p5
F0.13236100192846312
sS'arm_flex_joint'
p6
F-1.5665255020736355
sS'wrist_flex_joint'
p7
F-1.5907883970493122
sS'head_tilt_joint'
p8
F-1.0877211390659693
sS'arm_roll_joint'
p9
F1.5030878038054301
s.