(dp1
S'hand_motor_joint'
p2
F1.2255450000000001
sS'head_pan_joint'
p3
F-1.5501088289309299
sS'wrist_roll_joint'
p4
F0.00053372741375845578
sS'arm_lift_joint'
p5
F0.37000312171077065
sS'arm_flex_joint'
p6
F-1.8499295020736355
sS'wrist_flex_joint'
p7
F-1.2899993970493122
sS'head_tilt_joint'
p8
F-0.43021613906596934
sS'arm_roll_joint'
p9
F8.0380543021618678e-07
s.