(dp1
S'hand_motor_joint'
p2
F0.98918099999999998
sS'head_pan_joint'
p3
F-5.8289309299297543e-06
sS'wrist_roll_joint'
p4
F-1.5733262725862416
sS'arm_lift_joint'
p5
F0.027836931887448187
sS'arm_flex_joint'
p6
F-1.6739045020736356
sS'wrist_flex_joint'
p7
F-0.84007739704931228
sS'head_tilt_joint'
p8
F-0.49999913906596949
sS'arm_roll_joint'
p9
F-0.0046571961945698348
s.