(dp1
S'hand_motor_joint'
p2
F1.2279089999999999
sS'head_pan_joint'
p3
F-5.8289309299297543e-06
sS'wrist_roll_joint'
p4
F1.6273207274137582
sS'arm_lift_joint'
p5
F0.32357933976031988
sS'arm_flex_joint'
p6
F-1.6355555020736356
sS'wrist_flex_joint'
p7
F-1.3222403970493122
sS'head_tilt_joint'
p8
F-0.49999913906596949
sS'arm_roll_joint'
p9
F-0.018713196194569903
s.