(dp1
S'hand_motor_joint'
p2
F-0.40418100000000001
sS'head_pan_joint'
p3
F-5.8289309299297543e-06
sS'wrist_roll_joint'
p4
F1.4528297274137585
sS'arm_lift_joint'
p5
F0.19684483471908926
sS'arm_flex_joint'
p6
F-1.6673855020736357
sS'wrist_flex_joint'
p7
F-0.30462839704931222
sS'head_tilt_joint'
p8
F-0.5000041390659693
sS'arm_roll_joint'
p9
F-1.57271819619457
s.