(dp1
S'hand_motor_joint'
p2
F-0.56195399999999995
sS'head_pan_joint'
p3
F-5.8289309299297543e-06
sS'wrist_roll_joint'
p4
F-1.5702602725862416
sS'arm_lift_joint'
p5
F0.19812102222910166
sS'arm_flex_joint'
p6
F-1.6666175020736356
sS'wrist_flex_joint'
p7
F0.24999860295068776
sS'head_tilt_joint'
p8
F-0.5000041390659693
sS'arm_roll_joint'
p9
F1.5727098038054299
s.