(dp1
S'hand_motor_joint'
p2
F-0.48986299999999999
sS'head_pan_joint'
p3
F9.1710690699464692e-06
sS'wrist_roll_joint'
p4
F1.6277067274137584
sS'arm_lift_joint'
p5
F0.32358105303031987
sS'arm_flex_joint'
p6
F-1.6363215020736355
sS'wrist_flex_joint'
p7
F-0.35850639704931209
sS'head_tilt_joint'
p8
F-0.49999913906596949
sS'arm_roll_joint'
p9
F-0.018729196194569919
s.